	.file	"linkedlist.c"
	.text
.Ltext0:
	.globl	AppendList
	.type	AppendList, @function
AppendList:
.LFB38:
	.file 1 "linkedlist.c"
	.loc 1 9 0
	.cfi_startproc
.LVL0:
	pushq	%r12
	.cfi_def_cfa_offset 16
	.cfi_offset 12, -16
	pushq	%rbp
	.cfi_def_cfa_offset 24
	.cfi_offset 6, -24
	pushq	%rbx
	.cfi_def_cfa_offset 32
	.cfi_offset 3, -32
	movq	%rdi, %rbp
	movl	%esi, %r12d
	.loc 1 10 0
	cmpq	$0, 8(%rdi)
	jne	.L4
	.loc 1 12 0
	movl	$16, %edi
.LVL1:
	call	malloc
.LVL2:
	movq	%rax, 8(%rbp)
	.loc 1 13 0
	movq	$0, 8(%rax)
	.loc 1 14 0
	movl	%r12d, (%rax)
	jmp	.L3
.LVL3:
.L4:
	movq	%rdi, %rbx
	jmp	.L2
.LVL4:
.L5:
.LBB8:
	.loc 1 21 0
	movq	%rax, %rbx
.LVL5:
.L2:
	.loc 1 19 0
	movq	8(%rbx), %rax
	testq	%rax, %rax
	jne	.L5
	.loc 1 24 0
	movl	$16, %edi
.LVL6:
	call	malloc
.LVL7:
	movq	%rax, 8(%rbx)
	.loc 1 25 0
	movq	$0, 8(%rax)
	.loc 1 26 0
	movq	8(%rbx), %rax
	movl	%r12d, (%rax)
.LVL8:
.L3:
.LBE8:
	.loc 1 29 0
	movq	%rbp, %rax
	popq	%rbx
	.cfi_def_cfa_offset 24
	popq	%rbp
	.cfi_def_cfa_offset 16
.LVL9:
	popq	%r12
	.cfi_def_cfa_offset 8
.LVL10:
	ret
	.cfi_endproc
.LFE38:
	.size	AppendList, .-AppendList
	.globl	BuildOneTwoThreeList
	.type	BuildOneTwoThreeList, @function
BuildOneTwoThreeList:
.LFB39:
	.loc 1 31 0
	.cfi_startproc
	pushq	%rbx
	.cfi_def_cfa_offset 16
	.cfi_offset 3, -16
	.loc 1 33 0
	movl	$16, %edi
	call	malloc
.LVL11:
	movq	%rax, %rbx
.LVL12:
	.loc 1 36 0
	movl	$1, (%rax)
	.loc 1 37 0
	movq	$0, 8(%rax)
	.loc 1 40 0
	movl	$2, %esi
	movq	%rax, %rdi
	call	AppendList
.LVL13:
	.loc 1 41 0
	movl	$3, %esi
	movq	%rbx, %rdi
	call	AppendList
.LVL14:
	.loc 1 45 0
	movq	%rbx, %rax
	popq	%rbx
	.cfi_def_cfa_offset 8
.LVL15:
	ret
	.cfi_endproc
.LFE39:
	.size	BuildOneTwoThreeList, .-BuildOneTwoThreeList
	.globl	PushList
	.type	PushList, @function
PushList:
.LFB40:
	.loc 1 47 0
	.cfi_startproc
.LVL16:
	pushq	%rbp
	.cfi_def_cfa_offset 16
	.cfi_offset 6, -16
	pushq	%rbx
	.cfi_def_cfa_offset 24
	.cfi_offset 3, -24
	subq	$8, %rsp
	.cfi_def_cfa_offset 32
	movq	%rdi, %rbx
	movl	%esi, %ebp
	.loc 1 48 0
	movl	$16, %edi
.LVL17:
	call	malloc
.LVL18:
	.loc 1 49 0
	movl	%ebp, (%rax)
	.loc 1 50 0
	movq	%rbx, 8(%rax)
	.loc 1 52 0
	addq	$8, %rsp
	.cfi_def_cfa_offset 24
	popq	%rbx
	.cfi_def_cfa_offset 16
.LVL19:
	popq	%rbp
	.cfi_def_cfa_offset 8
.LVL20:
	ret
	.cfi_endproc
.LFE40:
	.size	PushList, .-PushList
	.section	.rodata.str1.1,"aMS",@progbits,1
.LC0:
	.string	"%i "
	.text
	.globl	PrintList
	.type	PrintList, @function
PrintList:
.LFB41:
	.loc 1 54 0
	.cfi_startproc
.LVL21:
	pushq	%rbx
	.cfi_def_cfa_offset 16
	.cfi_offset 3, -16
	movq	%rdi, %rbx
.LVL22:
	.loc 1 57 0
	jmp	.L12
.LVL23:
.L13:
	.loc 1 58 0
	movl	(%rbx), %edx
.LVL24:
.LBB9:
.LBB10:
	.file 2 "/usr/include/x86_64-linux-gnu/bits/stdio2.h"
	.loc 2 104 0
	movl	$.LC0, %esi
	movl	$1, %edi
	movl	$0, %eax
	call	__printf_chk
.LVL25:
.LBE10:
.LBE9:
	.loc 1 59 0
	movq	8(%rbx), %rbx
.LVL26:
.L12:
	.loc 1 57 0
	cmpq	$0, 8(%rbx)
	jne	.L13
	.loc 1 61 0
	movl	(%rbx), %edx
.LVL27:
.LBB11:
.LBB12:
	.loc 2 104 0
	movl	$.LC0, %esi
	movl	$1, %edi
	movl	$0, %eax
	call	__printf_chk
.LVL28:
.LBE12:
.LBE11:
	.loc 1 62 0
	popq	%rbx
	.cfi_def_cfa_offset 8
.LVL29:
	ret
	.cfi_endproc
.LFE41:
	.size	PrintList, .-PrintList
	.globl	LengthList
	.type	LengthList, @function
LengthList:
.LFB42:
	.loc 1 64 0
	.cfi_startproc
.LVL30:
	.loc 1 67 0
	movl	$1, %eax
	.loc 1 70 0
	jmp	.L16
.LVL31:
.L17:
	.loc 1 72 0
	addl	$1, %eax
.LVL32:
.L16:
	.loc 1 70 0
	movq	8(%rdi), %rdi
.LVL33:
	testq	%rdi, %rdi
	jne	.L17
	.loc 1 75 0
	rep ret
	.cfi_endproc
.LFE42:
	.size	LengthList, .-LengthList
	.globl	FreeList
	.type	FreeList, @function
FreeList:
.LFB43:
	.loc 1 77 0
	.cfi_startproc
.LVL34:
	pushq	%rbx
	.cfi_def_cfa_offset 16
	.cfi_offset 3, -16
.LVL35:
	.loc 1 81 0
	jmp	.L19
.LVL36:
.L20:
	.loc 1 84 0
	call	free
.LVL37:
	.loc 1 83 0
	movq	%rbx, %rdi
.LVL38:
.L19:
	.loc 1 81 0
	movq	8(%rdi), %rbx
	testq	%rbx, %rbx
	jne	.L20
	.loc 1 86 0
	popq	%rbx
	.cfi_def_cfa_offset 8
	ret
	.cfi_endproc
.LFE43:
	.size	FreeList, .-FreeList
	.globl	CountList
	.type	CountList, @function
CountList:
.LFB44:
	.loc 1 88 0
	.cfi_startproc
.LVL39:
	.loc 1 91 0
	movl	$0, %eax
	.loc 1 94 0
	jmp	.L23
.LVL40:
.L25:
	.loc 1 95 0
	cmpl	%esi, (%rdi)
	jne	.L24
	.loc 1 96 0
	addl	$1, %eax
.LVL41:
.L24:
	movq	%rdx, %rdi
.LVL42:
.L23:
	.loc 1 94 0
	movq	8(%rdi), %rdx
	testq	%rdx, %rdx
	jne	.L25
	.loc 1 101 0
	cmpl	(%rdi), %esi
	jne	.L26
	.loc 1 102 0
	addl	$1, %eax
.LVL43:
.L26:
	.loc 1 105 0
	rep ret
	.cfi_endproc
.LFE44:
	.size	CountList, .-CountList
	.section	.rodata.str1.1
.LC1:
	.string	"\"%i\" found %i times\n"
	.text
	.globl	main
	.type	main, @function
main:
.LFB45:
	.loc 1 107 0
	.cfi_startproc
	pushq	%rbx
	.cfi_def_cfa_offset 16
	.cfi_offset 3, -16
.LVL44:
	.loc 1 113 0
	movl	$0, %eax
	call	BuildOneTwoThreeList
.LVL45:
	movq	%rax, %rbx
.LVL46:
	.loc 1 114 0
	movl	$4, %esi
	movq	%rax, %rdi
	call	AppendList
.LVL47:
	.loc 1 115 0
	movl	$1, %esi
	movq	%rbx, %rdi
	call	AppendList
.LVL48:
	.loc 1 116 0
	movl	$2, %esi
	movq	%rbx, %rdi
	call	AppendList
.LVL49:
	.loc 1 117 0
	movl	$2, %esi
	movq	%rbx, %rdi
	call	AppendList
.LVL50:
	.loc 1 118 0
	movl	$2, %esi
	movq	%rbx, %rdi
	call	AppendList
.LVL51:
	.loc 1 119 0
	movl	$2, %esi
	movq	%rbx, %rdi
	call	CountList
.LVL52:
.LBB13:
.LBB14:
	.loc 2 104 0
	movl	%eax, %ecx
	movl	$2, %edx
	movl	$.LC1, %esi
	movl	$1, %edi
	movl	$0, %eax
.LVL53:
	call	__printf_chk
.LVL54:
.LBE14:
.LBE13:
	.loc 1 144 0
	popq	%rbx
	.cfi_def_cfa_offset 8
.LVL55:
	ret
	.cfi_endproc
.LFE45:
	.size	main, .-main
.Letext0:
	.file 3 "/usr/lib/gcc/x86_64-linux-gnu/5/include/stddef.h"
	.file 4 "/usr/include/x86_64-linux-gnu/bits/types.h"
	.file 5 "/usr/include/libio.h"
	.file 6 "/usr/include/stdio.h"
	.file 7 "/usr/include/stdlib.h"
	.section	.note.GNU-stack,"",@progbits
